; ModuleID = '15/1297.c'
source_filename = "15/1297.c"
target datalayout = "e-m:e-p270:32:32-p271:32:32-p272:64:64-i64:64-f80:128-n8:16:32:64-S128"
target triple = "x86_64-pc-linux-gnu"

@.str = private unnamed_addr constant [3 x i8] c"%d\00", align 1

; Function Attrs: noinline nounwind uwtable
define dso_local i32 @main() #0 {
  %1 = alloca i32, align 4
  %2 = alloca i32, align 4
  %3 = alloca i32, align 4
  %4 = alloca i32, align 4
  %5 = alloca i32, align 4
  %6 = alloca i32, align 4
  %7 = alloca i32, align 4
  %8 = alloca i32, align 4
  %9 = alloca i32, align 4
  %10 = alloca i32, align 4
  %11 = alloca i32, align 4
  %12 = alloca [1000 x [1000 x i32]], align 16
  store i32 0, i32* %1, align 4
  store i32 0, i32* %5, align 4
  store i32 0, i32* %10, align 4
  store i32 0, i32* %11, align 4
  %13 = call i32 (i8*, ...) @__isoc99_scanf(i8* getelementptr inbounds ([3 x i8], [3 x i8]* @.str, i64 0, i64 0), i32* %2)
  store i32 0, i32* %3, align 4
  br label %14

14:                                               ; preds = %35, %0
  %15 = load i32, i32* %3, align 4
  %16 = load i32, i32* %2, align 4
  %17 = icmp slt i32 %15, %16
  br i1 %17, label %18, label %38

18:                                               ; preds = %14
  store i32 0, i32* %4, align 4
  br label %19

19:                                               ; preds = %31, %18
  %20 = load i32, i32* %4, align 4
  %21 = load i32, i32* %2, align 4
  %22 = icmp slt i32 %20, %21
  br i1 %22, label %23, label %34

23:                                               ; preds = %19
  %24 = load i32, i32* %3, align 4
  %25 = sext i32 %24 to i64
  %26 = getelementptr inbounds [1000 x [1000 x i32]], [1000 x [1000 x i32]]* %12, i64 0, i64 %25
  %27 = load i32, i32* %4, align 4
  %28 = sext i32 %27 to i64
  %29 = getelementptr inbounds [1000 x i32], [1000 x i32]* %26, i64 0, i64 %28
  %30 = call i32 (i8*, ...) @__isoc99_scanf(i8* getelementptr inbounds ([3 x i8], [3 x i8]* @.str, i64 0, i64 0), i32* %29)
  br label %31

31:                                               ; preds = %23
  %32 = load i32, i32* %4, align 4
  %33 = add nsw i32 %32, 1
  store i32 %33, i32* %4, align 4
  br label %19

34:                                               ; preds = %19
  br label %35

35:                                               ; preds = %34
  %36 = load i32, i32* %3, align 4
  %37 = add nsw i32 %36, 1
  store i32 %37, i32* %3, align 4
  br label %14

38:                                               ; preds = %14
  store i32 1, i32* %3, align 4
  br label %39

39:                                               ; preds = %70, %38
  %40 = load i32, i32* %3, align 4
  %41 = load i32, i32* %2, align 4
  %42 = sub nsw i32 %41, 1
  %43 = icmp slt i32 %40, %42
  br i1 %43, label %44, label %73

44:                                               ; preds = %39
  store i32 1, i32* %4, align 4
  br label %45

45:                                               ; preds = %66, %44
  %46 = load i32, i32* %4, align 4
  %47 = load i32, i32* %2, align 4
  %48 = sub nsw i32 %47, 1
  %49 = icmp slt i32 %46, %48
  br i1 %49, label %50, label %69

50:                                               ; preds = %45
  %51 = load i32, i32* %3, align 4
  %52 = sext i32 %51 to i64
  %53 = getelementptr inbounds [1000 x [1000 x i32]], [1000 x [1000 x i32]]* %12, i64 0, i64 %52
  %54 = load i32, i32* %4, align 4
  %55 = sext i32 %54 to i64
  %56 = getelementptr inbounds [1000 x i32], [1000 x i32]* %53, i64 0, i64 %55
  %57 = load i32, i32* %56, align 4
  %58 = icmp eq i32 %57, 0
  br i1 %58, label %59, label %65

59:                                               ; preds = %50
  %60 = load i32, i32* %10, align 4
  %61 = icmp eq i32 %60, 0
  br i1 %61, label %62, label %65

62:                                               ; preds = %59
  %63 = load i32, i32* %3, align 4
  store i32 %63, i32* %6, align 4
  %64 = load i32, i32* %4, align 4
  store i32 %64, i32* %7, align 4
  store i32 1, i32* %10, align 4
  br label %65

65:                                               ; preds = %62, %59, %50
  br label %66

66:                                               ; preds = %65
  %67 = load i32, i32* %4, align 4
  %68 = add nsw i32 %67, 1
  store i32 %68, i32* %4, align 4
  br label %45

69:                                               ; preds = %45
  br label %70

70:                                               ; preds = %69
  %71 = load i32, i32* %3, align 4
  %72 = add nsw i32 %71, 1
  store i32 %72, i32* %3, align 4
  br label %39

73:                                               ; preds = %39
  %74 = load i32, i32* %2, align 4
  %75 = sub nsw i32 %74, 1
  store i32 %75, i32* %3, align 4
  br label %76

76:                                               ; preds = %105, %73
  %77 = load i32, i32* %3, align 4
  %78 = icmp sge i32 %77, 0
  br i1 %78, label %79, label %108

79:                                               ; preds = %76
  %80 = load i32, i32* %2, align 4
  %81 = sub nsw i32 %80, 1
  store i32 %81, i32* %4, align 4
  br label %82

82:                                               ; preds = %101, %79
  %83 = load i32, i32* %4, align 4
  %84 = icmp sge i32 %83, 0
  br i1 %84, label %85, label %104

85:                                               ; preds = %82
  %86 = load i32, i32* %3, align 4
  %87 = sext i32 %86 to i64
  %88 = getelementptr inbounds [1000 x [1000 x i32]], [1000 x [1000 x i32]]* %12, i64 0, i64 %87
  %89 = load i32, i32* %4, align 4
  %90 = sext i32 %89 to i64
  %91 = getelementptr inbounds [1000 x i32], [1000 x i32]* %88, i64 0, i64 %90
  %92 = load i32, i32* %91, align 4
  %93 = icmp eq i32 %92, 0
  br i1 %93, label %94, label %100

94:                                               ; preds = %85
  %95 = load i32, i32* %11, align 4
  %96 = icmp eq i32 %95, 0
  br i1 %96, label %97, label %100

97:                                               ; preds = %94
  %98 = load i32, i32* %3, align 4
  store i32 %98, i32* %8, align 4
  %99 = load i32, i32* %4, align 4
  store i32 %99, i32* %9, align 4
  store i32 1, i32* %11, align 4
  br label %100

100:                                              ; preds = %97, %94, %85
  br label %101

101:                                              ; preds = %100
  %102 = load i32, i32* %4, align 4
  %103 = add nsw i32 %102, -1
  store i32 %103, i32* %4, align 4
  br label %82

104:                                              ; preds = %82
  br label %105

105:                                              ; preds = %104
  %106 = load i32, i32* %3, align 4
  %107 = add nsw i32 %106, -1
  store i32 %107, i32* %3, align 4
  br label %76

108:                                              ; preds = %76
  %109 = load i32, i32* %8, align 4
  %110 = load i32, i32* %6, align 4
  %111 = sub nsw i32 %109, %110
  %112 = sub nsw i32 %111, 1
  %113 = load i32, i32* %9, align 4
  %114 = load i32, i32* %7, align 4
  %115 = sub nsw i32 %113, %114
  %116 = sub nsw i32 %115, 1
  %117 = mul nsw i32 %112, %116
  store i32 %117, i32* %5, align 4
  %118 = load i32, i32* %5, align 4
  %119 = call i32 (i8*, ...) @printf(i8* getelementptr inbounds ([3 x i8], [3 x i8]* @.str, i64 0, i64 0), i32 %118)
  ret i32 0
}

declare dso_local i32 @__isoc99_scanf(i8*, ...) #1

declare dso_local i32 @printf(i8*, ...) #1


!llvm.module.flags = !{!0}
!llvm.ident = !{!1}

!0 = !{i32 1, !"wchar_size", i32 4}
!1 = !{!"clang version 10.0.0-4ubuntu1 "}
